target datalayout = "e-m:e-p270:32:32-p271:32:32-p272:64:64-i64:64-i128:128-f80:128-n8:16:32:64-S128"
target triple = "x86_64-pc-linux-gnu"

%union.pthread_mutex_t = type { %struct.__pthread_mutex_s }
%struct.__pthread_mutex_s = type { i32, i32, i32, i32, i32, i16, i16, %struct.__pthread_internal_list }
%struct.__pthread_internal_list = type { ptr, ptr }

@trigger_mutex = internal global %union.pthread_mutex_t zeroinitializer, align 8
@.str.2 = private unnamed_addr constant [29 x i8] c"%s: pthread_mutex_lock(): %m\00", align 1
@.str.3 = private unnamed_addr constant [31 x i8] c"%s: pthread_mutex_unlock(): %m\00", align 1
@__func__.trigger_primary_ctld_acct_full = private unnamed_addr constant [31 x i8] c"trigger_primary_ctld_acct_full\00", align 1
@trigger_pri_ctld_acct_buffer_full = internal global i8 0, align 1

; Function Attrs: nounwind uwtable
define dso_local void @trigger_primary_ctld_acct_full() #0 {
  %1 = alloca i32, align 4
  %2 = alloca i32, align 4
  br label %3

3:                                                ; preds = %0
  call void @llvm.lifetime.start.p0(i64 4, ptr %1) #10
  %4 = call i32 @pthread_mutex_lock(ptr noundef @trigger_mutex) #10
  store i32 %4, ptr %1, align 4
  %5 = load i32, ptr %1, align 4
  %6 = icmp ne i32 %5, 0
  br i1 %6, label %7, label %10

7:                                                ; preds = %3
  %8 = load i32, ptr %1, align 4
  %9 = call ptr @__errno_location() #11
  store i32 %8, ptr %9, align 4
  call void (ptr, ...) @fatal_abort(ptr noundef @.str.2, ptr noundef @__func__.trigger_primary_ctld_acct_full) #12
  unreachable

10:                                               ; preds = %3
  call void @llvm.lifetime.end.p0(i64 4, ptr %1) #10
  br label %11

11:                                               ; preds = %10
  store i8 1, ptr @trigger_pri_ctld_acct_buffer_full, align 1
  br label %12

12:                                               ; preds = %11
  call void @llvm.lifetime.start.p0(i64 4, ptr %2) #10
  %13 = call i32 @pthread_mutex_unlock(ptr noundef @trigger_mutex) #10
  store i32 %13, ptr %2, align 4
  %14 = load i32, ptr %2, align 4
  %15 = icmp ne i32 %14, 0
  br i1 %15, label %16, label %19

16:                                               ; preds = %12
  %17 = load i32, ptr %2, align 4
  %18 = call ptr @__errno_location() #11
  store i32 %17, ptr %18, align 4
  call void (ptr, ...) @fatal_abort(ptr noundef @.str.3, ptr noundef @__func__.trigger_primary_ctld_acct_full) #12
  unreachable

19:                                               ; preds = %12
  call void @llvm.lifetime.end.p0(i64 4, ptr %2) #10
  br label %20

20:                                               ; preds = %19
  ret void
}